; Function Attrs: mustprogress uwtable
define void @_ZN3zmq14session_base_t11attach_pipeEPNS_6pipe_tE(ptr noundef nonnull align 8 dereferenceable(1624) %0, ptr noundef %1) local_unnamed_addr #0 align 2 {
  %3 = tail call noundef zeroext i1 @_ZNK3zmq5own_t14is_terminatingEv(ptr noundef nonnull align 8 dereferenceable(1444) %0)
  br i1 %3, label %4, label %9, !prof !104

4:                                                ; preds = %2
  %5 = load ptr, ptr @stderr, align 8, !tbaa !52
  %6 = tail call i32 (ptr, ptr, ...) @fprintf(ptr noundef %5, ptr noundef nonnull @.str.3, ptr noundef nonnull @.str.6, ptr noundef nonnull @.str.1, i32 noundef 137) #27
  %7 = load ptr, ptr @stderr, align 8, !tbaa !52
  %8 = tail call i32 @fflush(ptr noundef %7)
  tail call void @_ZN3zmq9zmq_abortEPKc(ptr noundef nonnull @.str.6)
  br label %9

9:                                                ; preds = %4, %2
  %10 = getelementptr inbounds nuw i8, ptr %0, i64 1480
  %11 = load ptr, ptr %10, align 8, !tbaa !101
  %.not = icmp eq ptr %11, null
  br i1 %.not, label %17, label %12, !prof !102

12:                                               ; preds = %9
  %13 = load ptr, ptr @stderr, align 8, !tbaa !52
  %14 = tail call i32 (ptr, ptr, ...) @fprintf(ptr noundef %13, ptr noundef nonnull @.str.3, ptr noundef nonnull @.str.4, ptr noundef nonnull @.str.1, i32 noundef 138) #27
  %15 = load ptr, ptr @stderr, align 8, !tbaa !52
  %16 = tail call i32 @fflush(ptr noundef %15)
  tail call void @_ZN3zmq9zmq_abortEPKc(ptr noundef nonnull @.str.4)
  br label %17

17:                                               ; preds = %12, %9
  %.not3 = icmp eq ptr %1, null
  br i1 %.not3, label %18, label %23, !prof !104

18:                                               ; preds = %17
  %19 = load ptr, ptr @stderr, align 8, !tbaa !52
  %20 = tail call i32 (ptr, ptr, ...) @fprintf(ptr noundef %19, ptr noundef nonnull @.str.3, ptr noundef nonnull @.str.7, ptr noundef nonnull @.str.1, i32 noundef 139) #27
  %21 = load ptr, ptr @stderr, align 8, !tbaa !52
  %22 = tail call i32 @fflush(ptr noundef %21)
  tail call void @_ZN3zmq9zmq_abortEPKc(ptr noundef nonnull @.str.7)
  br label %23

23:                                               ; preds = %17, %18
  store ptr %1, ptr %10, align 8, !tbaa !101
  %24 = getelementptr inbounds nuw i8, ptr %0, i64 1464
  tail call void @_ZN3zmq6pipe_t14set_event_sinkEPNS_13i_pipe_eventsE(ptr noundef nonnull align 8 dereferenceable(328) %1, ptr noundef nonnull %24)
  ret void
}